target datalayout = "e-m:e-p270:32:32-p271:32:32-p272:64:64-i64:64-i128:128-f80:128-n8:16:32:64-S128"
target triple = "x86_64-pc-linux-gnu"

%struct.wpacket_st = type { ptr, ptr, i64, i64, i64, ptr, i8 }
%struct.buf_mem_st = type { i64, ptr, i64, i64 }

@.str.5 = private unnamed_addr constant [32 x i8] c"../openssl/test/punycode_test.c\00", align 1
@.str.30 = private unnamed_addr constant [19 x i8] c"in = BUF_MEM_new()\00", align 1
@.str.31 = private unnamed_addr constant [28 x i8] c"WPACKET_init_len(&p, in, 0)\00", align 1
@.str.32 = private unnamed_addr constant [30 x i8] c"WPACKET_put_bytes_u8(&p, '.')\00", align 1
@.str.33 = private unnamed_addr constant [49 x i8] c"WPACKET_memcpy(&p, \22xn--a\22, sizeof(\22xn--a\22) - 1)\00", align 1
@.str.34 = private unnamed_addr constant [6 x i8] c"xn--a\00", align 1
@.str.35 = private unnamed_addr constant [31 x i8] c"WPACKET_put_bytes_u8(&p, '\\0')\00", align 1
@.str.36 = private unnamed_addr constant [33 x i8] c"out = OPENSSL_malloc(in->length)\00", align 1
@.str.37 = private unnamed_addr constant [39 x i8] c"ossl_a2ulabel(in->data, out, num_reps)\00", align 1
@.str.38 = private unnamed_addr constant [2 x i8] c"0\00", align 1
@.str.39 = private unnamed_addr constant [14 x i8] c"out[num_reps]\00", align 1
@.str.40 = private unnamed_addr constant [5 x i8] c"0x7f\00", align 1
@.str.41 = private unnamed_addr constant [41 x i8] c"ossl_a2ulabel(in->data, out, in->length)\00", align 1
@.str.42 = private unnamed_addr constant [12 x i8] c"strlen(out)\00", align 1
@.str.43 = private unnamed_addr constant [13 x i8] c"num_reps * 3\00", align 1

; Function Attrs: nounwind uwtable
define internal i32 @test_dotted_overflow() #0 {
  %1 = alloca i32, align 4
  %2 = alloca i64, align 8
  %3 = alloca %struct.wpacket_st, align 8
  %4 = alloca ptr, align 8
  %5 = alloca ptr, align 8
  %6 = alloca i64, align 8
  %7 = alloca i32, align 4
  %8 = alloca i32, align 4
  call void @llvm.lifetime.start.p0(i64 8, ptr %2) #7
  store i64 22, ptr %2, align 8, !tbaa !14
  call void @llvm.lifetime.start.p0(i64 56, ptr %3) #7
  call void @llvm.lifetime.start.p0(i64 8, ptr %4) #7
  call void @llvm.lifetime.start.p0(i64 8, ptr %5) #7
  store ptr null, ptr %5, align 8, !tbaa !18
  call void @llvm.lifetime.start.p0(i64 8, ptr %6) #7
  call void @llvm.lifetime.start.p0(i64 4, ptr %7) #7
  store i32 0, ptr %7, align 4, !tbaa !4
  %9 = call ptr @BUF_MEM_new()
  store ptr %9, ptr %4, align 8, !tbaa !19
  %10 = call i32 @test_ptr(ptr noundef @.str.5, i32 noundef 250, ptr noundef @.str.30, ptr noundef %9)
  %11 = icmp ne i32 %10, 0
  br i1 %11, label %13, label %12

12:                                               ; preds = %0
  store i32 0, ptr %1, align 4
  store i32 1, ptr %8, align 4
  br label %105

13:                                               ; preds = %0
  %14 = load ptr, ptr %4, align 8, !tbaa !19
  %15 = call i32 @WPACKET_init_len(ptr noundef %3, ptr noundef %14, i64 noundef 0)
  %16 = icmp ne i32 %15, 0
  %17 = zext i1 %16 to i32
  %18 = call i32 @test_true(ptr noundef @.str.5, i32 noundef 252, ptr noundef @.str.31, i32 noundef %17)
  %19 = icmp ne i32 %18, 0
  br i1 %19, label %22, label %20

20:                                               ; preds = %13
  %21 = load ptr, ptr %4, align 8, !tbaa !19
  call void @BUF_MEM_free(ptr noundef %21)
  store i32 0, ptr %1, align 4
  store i32 1, ptr %8, align 4
  br label %105

22:                                               ; preds = %13
  store i64 0, ptr %6, align 8, !tbaa !14
  br label %23

23:                                               ; preds = %44, %22
  %24 = load i64, ptr %6, align 8, !tbaa !14
  %25 = icmp ult i64 %24, 22
  br i1 %25, label %26, label %47

26:                                               ; preds = %23
  %27 = load i64, ptr %6, align 8, !tbaa !14
  %28 = icmp ugt i64 %27, 1
  br i1 %28, label %29, label %36

29:                                               ; preds = %26
  %30 = call i32 @WPACKET_put_bytes__(ptr noundef %3, i64 noundef 46, i64 noundef 1)
  %31 = icmp ne i32 %30, 0
  %32 = zext i1 %31 to i32
  %33 = call i32 @test_true(ptr noundef @.str.5, i32 noundef 257, ptr noundef @.str.32, i32 noundef %32)
  %34 = icmp ne i32 %33, 0
  br i1 %34, label %36, label %35

35:                                               ; preds = %29
  br label %101

36:                                               ; preds = %29, %26
  %37 = call i32 @WPACKET_memcpy(ptr noundef %3, ptr noundef @.str.34, i64 noundef 5)
  %38 = icmp ne i32 %37, 0
  %39 = zext i1 %38 to i32
  %40 = call i32 @test_true(ptr noundef @.str.5, i32 noundef 259, ptr noundef @.str.33, i32 noundef %39)
  %41 = icmp ne i32 %40, 0
  br i1 %41, label %43, label %42

42:                                               ; preds = %36
  br label %101

43:                                               ; preds = %36
  br label %44

44:                                               ; preds = %43
  %45 = load i64, ptr %6, align 8, !tbaa !14
  %46 = add i64 %45, 1
  store i64 %46, ptr %6, align 8, !tbaa !14
  br label %23, !llvm.loop !21

47:                                               ; preds = %23
  %48 = call i32 @WPACKET_put_bytes__(ptr noundef %3, i64 noundef 0, i64 noundef 1)
  %49 = icmp ne i32 %48, 0
  %50 = zext i1 %49 to i32
  %51 = call i32 @test_true(ptr noundef @.str.5, i32 noundef 262, ptr noundef @.str.35, i32 noundef %50)
  %52 = icmp ne i32 %51, 0
  br i1 %52, label %54, label %53

53:                                               ; preds = %47
  br label %101

54:                                               ; preds = %47
  %55 = load ptr, ptr %4, align 8, !tbaa !19
  %56 = getelementptr inbounds nuw %struct.buf_mem_st, ptr %55, i32 0, i32 0
  %57 = load i64, ptr %56, align 8, !tbaa !22
  %58 = call noalias ptr @CRYPTO_malloc(i64 noundef %57, ptr noundef @.str.5, i32 noundef 264)
  store ptr %58, ptr %5, align 8, !tbaa !18
  %59 = call i32 @test_ptr(ptr noundef @.str.5, i32 noundef 264, ptr noundef @.str.36, ptr noundef %58)
  %60 = icmp ne i32 %59, 0
  br i1 %60, label %62, label %61

61:                                               ; preds = %54
  br label %101

62:                                               ; preds = %54
  %63 = load ptr, ptr %5, align 8, !tbaa !18
  %64 = load ptr, ptr %4, align 8, !tbaa !19
  %65 = getelementptr inbounds nuw %struct.buf_mem_st, ptr %64, i32 0, i32 0
  %66 = load i64, ptr %65, align 8, !tbaa !22
  %67 = sub i64 %66, 1
  call void @llvm.memset.p0.i64(ptr align 1 %63, i8 127, i64 %67, i1 false)
  %68 = load ptr, ptr %4, align 8, !tbaa !19
  %69 = getelementptr inbounds nuw %struct.buf_mem_st, ptr %68, i32 0, i32 1
  %70 = load ptr, ptr %69, align 8, !tbaa !24
  %71 = load ptr, ptr %5, align 8, !tbaa !18
  %72 = call i32 @ossl_a2ulabel(ptr noundef %70, ptr noundef %71, i64 noundef 22)
  %73 = call i32 @test_int_le(ptr noundef @.str.5, i32 noundef 269, ptr noundef @.str.37, ptr noundef @.str.38, i32 noundef %72, i32 noundef 0)
  %74 = icmp ne i32 %73, 0
  br i1 %74, label %75, label %82

75:                                               ; preds = %62
  %76 = load ptr, ptr %5, align 8, !tbaa !18
  %77 = getelementptr inbounds nuw i8, ptr %76, i64 22
  %78 = load i8, ptr %77, align 1, !tbaa !25
  %79 = sext i8 %78 to i32
  %80 = call i32 @test_int_eq(ptr noundef @.str.5, i32 noundef 270, ptr noundef @.str.39, ptr noundef @.str.40, i32 noundef %79, i32 noundef 127)
  %81 = icmp ne i32 %80, 0
  br i1 %81, label %83, label %82

82:                                               ; preds = %75, %62
  br label %101

83:                                               ; preds = %75
  %84 = load ptr, ptr %4, align 8, !tbaa !19
  %85 = getelementptr inbounds nuw %struct.buf_mem_st, ptr %84, i32 0, i32 1
  %86 = load ptr, ptr %85, align 8, !tbaa !24
  %87 = load ptr, ptr %5, align 8, !tbaa !18
  %88 = load ptr, ptr %4, align 8, !tbaa !19
  %89 = getelementptr inbounds nuw %struct.buf_mem_st, ptr %88, i32 0, i32 0
  %90 = load i64, ptr %89, align 8, !tbaa !22
  %91 = call i32 @ossl_a2ulabel(ptr noundef %86, ptr noundef %87, i64 noundef %90)
  %92 = call i32 @test_int_gt(ptr noundef @.str.5, i32 noundef 274, ptr noundef @.str.41, ptr noundef @.str.38, i32 noundef %91, i32 noundef 0)
  %93 = icmp ne i32 %92, 0
  br i1 %93, label %94, label %99

94:                                               ; preds = %83
  %95 = load ptr, ptr %5, align 8, !tbaa !18
  %96 = call i64 @strlen(ptr noundef %95) #8
  %97 = call i32 @test_size_t_eq(ptr noundef @.str.5, i32 noundef 275, ptr noundef @.str.42, ptr noundef @.str.43, i64 noundef %96, i64 noundef 66)
  %98 = icmp ne i32 %97, 0
  br i1 %98, label %100, label %99

99:                                               ; preds = %94, %83
  br label %101

100:                                              ; preds = %94
  store i32 1, ptr %7, align 4, !tbaa !4
  br label %101

101:                                              ; preds = %100, %99, %82, %61, %53, %42, %35
  call void @WPACKET_cleanup(ptr noundef %3)
  %102 = load ptr, ptr %4, align 8, !tbaa !19
  call void @BUF_MEM_free(ptr noundef %102)
  %103 = load ptr, ptr %5, align 8, !tbaa !18
  call void @CRYPTO_free(ptr noundef %103, ptr noundef @.str.5, i32 noundef 282)
  %104 = load i32, ptr %7, align 4, !tbaa !4
  store i32 %104, ptr %1, align 4
  store i32 1, ptr %8, align 4
  br label %105

105:                                              ; preds = %101, %20, %12
  call void @llvm.lifetime.end.p0(i64 4, ptr %7) #7
  call void @llvm.lifetime.end.p0(i64 8, ptr %6) #7
  call void @llvm.lifetime.end.p0(i64 8, ptr %5) #7
  call void @llvm.lifetime.end.p0(i64 8, ptr %4) #7
  call void @llvm.lifetime.end.p0(i64 56, ptr %3) #7
  call void @llvm.lifetime.end.p0(i64 8, ptr %2) #7
  %106 = load i32, ptr %1, align 4
  ret i32 %106
}