; Function Attrs: nounwind uwtable
define internal range(i32 0, 2) i32 @test_dotted_overflow() #0 {
  %1 = alloca %struct.wpacket_st, align 8
  call void @llvm.lifetime.start.p0(i64 56, ptr nonnull %1) #6
  %2 = tail call ptr @BUF_MEM_new() #6
  %3 = tail call i32 @test_ptr(ptr noundef nonnull @.str.5, i32 noundef 250, ptr noundef nonnull @.str.30, ptr noundef %2) #6
  %.not = icmp eq i32 %3, 0
  br i1 %.not, label %52, label %4

4:                                                ; preds = %0
  %5 = call i32 @WPACKET_init_len(ptr noundef nonnull %1, ptr noundef %2, i64 noundef 0) #6
  %6 = icmp ne i32 %5, 0
  %7 = zext i1 %6 to i32
  %8 = call i32 @test_true(ptr noundef nonnull @.str.5, i32 noundef 252, ptr noundef nonnull @.str.31, i32 noundef %7) #6
  %.not21 = icmp eq i32 %8, 0
  br i1 %.not21, label %9, label %.preheader

9:                                                ; preds = %4
  call void @BUF_MEM_free(ptr noundef %2) #6
  br label %52

10:                                               ; preds = %18
  %11 = add nuw nsw i64 %.01830, 1
  %exitcond.not = icmp eq i64 %11, 22
  br i1 %exitcond.not, label %23, label %.preheader, !llvm.loop !14

.preheader:                                       ; preds = %4, %10
  %.01830 = phi i64 [ %11, %10 ], [ 0, %4 ]
  %12 = icmp samesign ugt i64 %.01830, 1
  br i1 %12, label %13, label %18

13:                                               ; preds = %.preheader
  %14 = call i32 @WPACKET_put_bytes__(ptr noundef nonnull %1, i64 noundef 46, i64 noundef 1) #6
  %15 = icmp ne i32 %14, 0
  %16 = zext i1 %15 to i32
  %17 = call i32 @test_true(ptr noundef nonnull @.str.5, i32 noundef 257, ptr noundef nonnull @.str.32, i32 noundef %16) #6
  %.not28 = icmp eq i32 %17, 0
  br i1 %.not28, label %.loopexit, label %18

18:                                               ; preds = %13, %.preheader
  %19 = call i32 @WPACKET_memcpy(ptr noundef nonnull %1, ptr noundef nonnull @.str.34, i64 noundef 5) #6
  %20 = icmp ne i32 %19, 0
  %21 = zext i1 %20 to i32
  %22 = call i32 @test_true(ptr noundef nonnull @.str.5, i32 noundef 259, ptr noundef nonnull @.str.33, i32 noundef %21) #6
  %.not29 = icmp eq i32 %22, 0
  br i1 %.not29, label %.loopexit, label %10

23:                                               ; preds = %10
  %24 = call i32 @WPACKET_put_bytes__(ptr noundef nonnull %1, i64 noundef 0, i64 noundef 1) #6
  %25 = icmp ne i32 %24, 0
  %26 = zext i1 %25 to i32
  %27 = call i32 @test_true(ptr noundef nonnull @.str.5, i32 noundef 262, ptr noundef nonnull @.str.35, i32 noundef %26) #6
  %.not22 = icmp eq i32 %27, 0
  br i1 %.not22, label %.loopexit, label %28

28:                                               ; preds = %23
  %29 = load i64, ptr %2, align 8, !tbaa !15
  %30 = call noalias ptr @CRYPTO_malloc(i64 noundef %29, ptr noundef nonnull @.str.5, i32 noundef 264) #6
  %31 = call i32 @test_ptr(ptr noundef nonnull @.str.5, i32 noundef 264, ptr noundef nonnull @.str.36, ptr noundef %30) #6
  %.not23 = icmp eq i32 %31, 0
  br i1 %.not23, label %.loopexit, label %32

32:                                               ; preds = %28
  %33 = load i64, ptr %2, align 8, !tbaa !15
  %34 = add i64 %33, -1
  call void @llvm.memset.p0.i64(ptr align 1 %30, i8 127, i64 %34, i1 false)
  %35 = getelementptr inbounds nuw i8, ptr %2, i64 8
  %36 = load ptr, ptr %35, align 8, !tbaa !18
  %37 = call i32 @ossl_a2ulabel(ptr noundef %36, ptr noundef %30, i64 noundef 22) #6
  %38 = call i32 @test_int_le(ptr noundef nonnull @.str.5, i32 noundef 269, ptr noundef nonnull @.str.37, ptr noundef nonnull @.str.38, i32 noundef %37, i32 noundef 0) #6
  %.not24 = icmp eq i32 %38, 0
  br i1 %.not24, label %.loopexit, label %39

39:                                               ; preds = %32
  %40 = getelementptr inbounds nuw i8, ptr %30, i64 22
  %41 = load i8, ptr %40, align 1, !tbaa !19
  %42 = sext i8 %41 to i32
  %43 = call i32 @test_int_eq(ptr noundef nonnull @.str.5, i32 noundef 270, ptr noundef nonnull @.str.39, ptr noundef nonnull @.str.40, i32 noundef %42, i32 noundef 127) #6
  %.not25 = icmp eq i32 %43, 0
  br i1 %.not25, label %.loopexit, label %44

44:                                               ; preds = %39
  %45 = load ptr, ptr %35, align 8, !tbaa !18
  %46 = load i64, ptr %2, align 8, !tbaa !15
  %47 = call i32 @ossl_a2ulabel(ptr noundef %45, ptr noundef nonnull %30, i64 noundef %46) #6
  %48 = call i32 @test_int_gt(ptr noundef nonnull @.str.5, i32 noundef 274, ptr noundef nonnull @.str.41, ptr noundef nonnull @.str.38, i32 noundef %47, i32 noundef 0) #6
  %.not26 = icmp eq i32 %48, 0
  br i1 %.not26, label %.loopexit, label %49

49:                                               ; preds = %44
  %50 = call i64 @strlen(ptr noundef nonnull dereferenceable(1) %30) #7
  %51 = call i32 @test_size_t_eq(ptr noundef nonnull @.str.5, i32 noundef 275, ptr noundef nonnull @.str.42, ptr noundef nonnull @.str.43, i64 noundef %50, i64 noundef 66) #6
  %.not27 = icmp ne i32 %51, 0
  %spec.select = zext i1 %.not27 to i32
  br label %.loopexit

.loopexit:                                        ; preds = %18, %13, %49, %44, %32, %39, %28, %23
  %.019 = phi ptr [ %30, %44 ], [ %30, %39 ], [ %30, %32 ], [ %30, %28 ], [ null, %23 ], [ %30, %49 ], [ null, %13 ], [ null, %18 ]
  %.0 = phi i32 [ 0, %44 ], [ 0, %39 ], [ 0, %32 ], [ 0, %28 ], [ 0, %23 ], [ %spec.select, %49 ], [ 0, %13 ], [ 0, %18 ]
  call void @WPACKET_cleanup(ptr noundef nonnull %1) #6
  call void @BUF_MEM_free(ptr noundef %2) #6
  call void @CRYPTO_free(ptr noundef %.019, ptr noundef nonnull @.str.5, i32 noundef 282) #6
  br label %52

52:                                               ; preds = %0, %.loopexit, %9
  %.020 = phi i32 [ %.0, %.loopexit ], [ 0, %9 ], [ 0, %0 ]
  call void @llvm.lifetime.end.p0(i64 56, ptr nonnull %1) #6
  ret i32 %.020
}